Certificate:
    Data:
        Version: 3 (0x2)
        Serial Number:
            59:e9:cb:65:7a:91:48:58:60:19:6d:87:e8:56:1e:e5
        Signature Algorithm: sha384WithRSAEncryption
        Issuer: C=LV, O=VAS Latvijas Valsts radio un telev\xC4\xABzijas centrs/organizationIdentifier=NTRLV-40003011203, CN=DEMO eParaksts Root CA
        Validity
            Not Before: Feb  2 15:19:35 2021 GMT
            Not After : Feb  2 15:19:35 2030 GMT
        Subject: C=LV, O=VAS Latvijas Valsts radio un telev\xC4\xABzijas centrs/organizationIdentifier=NTRLV-40003011203, CN=DEMO LV eID ICA 2021
        Subject Public Key Info:
            Public Key Algorithm: rsaEncryption
                RSA Public-Key: (4096 bit)
                Modulus:
                    00:e8:e4:c7:26:ce:25:18:ad:a3:c0:05:f2:1b:f8:
                    1a:25:23:9b:d7:c9:76:42:c8:15:c5:5c:c4:1f:ea:
                    66:3b:e1:09:ec:1b:1e:a4:ed:8e:7a:f9:32:ee:5f:
                    30:19:38:d1:d1:78:db:ac:52:f3:ed:7c:6f:97:77:
                    7e:1e:56:e3:c6:48:3a:f3:3a:fc:e4:94:5a:33:4a:
                    10:8e:2b:90:b4:8c:17:1f:b4:dc:cd:d6:90:d8:04:
                    e3:b4:db:74:cd:39:5d:af:a0:a5:c8:ab:5b:b1:35:
                    b5:9d:4d:1a:54:1e:30:8d:4f:84:6a:84:03:8f:6b:
                    38:fa:7a:5a:58:54:43:ea:d4:4d:2c:75:36:e8:4f:
                    22:0e:e3:ca:96:43:d0:20:07:28:13:39:bc:9e:a5:
                    44:f1:92:00:ba:cb:b1:44:23:ed:4d:05:cd:0c:9d:
                    7d:37:64:0c:fd:bf:8f:f4:33:28:18:54:e0:35:a1:
                    d4:72:a7:9b:05:6b:dd:e9:4d:fe:23:d3:4a:94:00:
                    db:88:e6:79:5a:b5:40:b7:4c:8c:f6:e8:ad:41:a4:
                    6c:70:76:b1:98:dc:05:a5:5a:27:0a:17:0b:ab:12:
                    39:c1:a8:db:7a:fe:4d:15:15:2f:1e:7f:9d:b3:0c:
                    d4:37:b4:13:bb:d9:49:ae:e6:67:0d:b1:18:f5:ef:
                    e2:20:48:f9:f6:55:a0:94:b4:11:e6:b5:d8:8c:1e:
                    ad:34:5c:6b:a4:84:7c:f0:fc:02:cd:8d:8b:10:ca:
                    60:24:9d:5b:18:1c:77:f0:92:47:f1:db:1a:4a:a6:
                    71:05:82:5e:3c:36:3e:c1:55:43:fc:3c:3b:35:30:
                    2f:7f:a2:f4:bb:6a:95:42:0a:94:b8:84:7d:74:b9:
                    a0:f1:4d:af:b6:35:2c:94:21:41:10:1e:07:9f:ed:
                    1c:20:fe:5c:2b:9f:7c:d0:4b:94:85:4a:ba:80:ef:
                    dd:d5:52:20:05:50:01:39:40:5d:1a:e9:3b:15:69:
                    0b:c2:5c:4e:b1:12:84:4f:96:a5:ea:b7:d1:9f:b5:
                    3d:70:09:f5:7a:36:e7:2e:59:71:9d:41:6f:24:4d:
                    c3:bd:79:dd:cf:14:0c:f9:36:08:98:5b:0a:73:76:
                    12:51:48:8a:c6:58:0a:45:e8:03:9a:b3:c3:18:57:
                    a6:8a:ef:ba:e6:cf:27:47:b2:5b:24:35:31:01:16:
                    e7:1c:0d:46:b9:10:95:da:b5:6d:77:d9:d6:48:32:
                    69:e1:1f:ed:75:5f:ca:c1:d8:9f:ca:43:e3:26:75:
                    d8:48:d8:ec:d2:d9:04:1e:d9:b7:d3:47:1c:d1:b6:
                    ba:63:8e:48:7d:a2:2b:4b:74:c0:a9:6a:26:25:67:
                    cc:af:6f
                Exponent: 65537 (0x10001)
        X509v3 extensions:
            X509v3 Basic Constraints: critical
                CA:TRUE
            X509v3 Key Usage: critical
                Certificate Sign, CRL Sign
            X509v3 Subject Key Identifier:
                60:B9:A7:9E:B1:F2:98:97:F5:85:95:8B:66:6A:F3:58:68:70:B3:A6
            X509v3 Authority Key Identifier:
                keyid:E8:0B:2E:CE:63:08:C8:F0:62:9C:E1:E2:47:4B:FD:A1:DB:46:02:1A

            Authority Information Access:
                CA Issuers - URI:http://demo.eparaksts.lv/cert/demo_eParaksts_Root_CA.crt

            X509v3 Certificate Policies:
                Policy: 0.4.0.194112.1.2
                  CPS: https://www.eparaksts.lv/repository
                Policy: 0.4.0.194112.1.0
                  CPS: https://www.eparaksts.lv/repository
                Policy: 0.4.0.2042.1.1
                  CPS: https://www.eparaksts.lv/repository
                Policy: 0.4.0.2042.1.2
                  CPS: https://www.eparaksts.lv/repository

            X509v3 CRL Distribution Points:

                Full Name:
                  URI:http://demo.eparaksts.lv/crl/demo_eParaksts_Root_CA.crl

    Signature Algorithm: sha384WithRSAEncryption
         68:0c:51:42:e8:b4:de:a1:ca:1c:63:7a:b6:e7:12:17:37:2b:
         80:48:e5:37:ee:d2:86:8a:31:80:d8:1b:af:ef:75:22:44:b0:
         fa:08:47:56:86:61:ea:85:b7:53:1e:de:fd:8f:b9:69:69:02:
         16:29:4d:fd:12:8c:37:60:8f:cf:01:22:14:99:f5:fe:b6:23:
         45:f4:42:0a:fe:4b:36:22:be:18:bc:4b:70:2b:82:4d:57:9c:
         83:a3:70:43:6c:d1:35:69:0f:51:f2:35:d5:ff:d0:d8:50:8e:
         b4:de:10:17:5b:fb:49:73:d0:58:3f:17:f0:f7:24:21:88:36:
         f4:be:3c:24:59:93:da:a5:cb:84:f1:5f:47:e1:ef:55:e1:d4:
         13:1f:ca:d4:49:c7:ae:11:77:9b:3a:6c:9a:de:62:46:12:0f:
         c3:83:a6:c1:da:8b:3d:c1:66:fd:14:24:1e:d8:b3:28:c2:2b:
         4c:98:7d:a8:1a:91:7b:68:2c:93:e9:8e:f8:4a:25:58:30:57:
         5c:a6:d0:e6:8d:28:6c:5c:5b:d6:b1:c2:5c:8b:89:5d:4d:dc:
         41:10:6d:45:ea:a9:fa:c7:a6:e5:4c:72:91:0a:26:6c:62:48:
         e3:6b:1e:ea:8a:b7:d7:2a:ae:fa:38:5b:11:15:93:c0:b5:13:
         0c:24:3e:7c:fa:43:0a:a7:73:ff:ab:8f:8f:7a:03:0f:2c:ce:
         ef:48:2c:23:94:c3:eb:1d:51:d7:86:90:48:e4:f9:76:27:70:
         f9:70:d6:28:b1:fa:ec:18:d8:bc:8a:d3:65:92:bc:3d:b3:a3:
         cf:6f:a9:2a:a6:c9:72:69:eb:99:f5:d3:fd:47:22:35:4c:77:
         c6:b8:cc:d8:ee:64:b7:ae:67:8b:21:68:6e:ab:1a:fa:f7:cf:
         11:79:08:49:0f:c8:97:9d:82:69:91:7b:fa:c7:38:a8:1d:b5:
         d0:53:a5:c3:72:77:03:07:02:19:46:b8:c2:19:4c:28:75:b5:
         8a:67:0a:de:96:7e:96:a7:b1:33:3d:08:09:ea:3c:3b:4b:5a:
         ce:83:9e:75:14:42:e4:0e:59:a0:83:63:ad:79:f2:d5:04:24:
         ba:eb:ff:66:e7:f1:e3:ea:19:29:10:58:ce:1e:ad:08:92:7b:
         0a:44:b7:44:b5:d1:a5:83:57:90:c3:19:cf:4b:7f:84:2e:db:
         5f:31:c1:24:26:24:ee:28:de:85:a0:6e:3c:e7:4c:36:2d:37:
         53:06:a7:79:3e:4f:06:84:ab:0c:ea:24:8f:49:5d:88:50:ea:
         2b:21:91:32:af:8e:b4:64:61:43:ac:66:e8:99:f6:96:45:1c:
         f5:65:54:d3:18:a0:61:18
-----BEGIN CERTIFICATE-----
MIIHoDCCBYigAwIBAgIQWenLZXqRSFhgGW2H6FYe5TANBgkqhkiG9w0BAQwFADCB
hTELMAkGA1UEBhMCTFYxOTA3BgNVBAoMMFZBUyBMYXR2aWphcyBWYWxzdHMgcmFk
aW8gdW4gdGVsZXbEq3ppamFzIGNlbnRyczEaMBgGA1UEYQwRTlRSTFYtNDAwMDMw
MTEyMDMxHzAdBgNVBAMMFkRFTU8gZVBhcmFrc3RzIFJvb3QgQ0EwHhcNMjEwMjAy
MTUxOTM1WhcNMzAwMjAyMTUxOTM1WjCBgzELMAkGA1UEBhMCTFYxOTA3BgNVBAoM
MFZBUyBMYXR2aWphcyBWYWxzdHMgcmFkaW8gdW4gdGVsZXbEq3ppamFzIGNlbnRy
czEaMBgGA1UEYQwRTlRSTFYtNDAwMDMwMTEyMDMxHTAbBgNVBAMMFERFTU8gTFYg
ZUlEIElDQSAyMDIxMIICIjANBgkqhkiG9w0BAQEFAAOCAg8AMIICCgKCAgEA6OTH
Js4lGK2jwAXyG/gaJSOb18l2QsgVxVzEH+pmO+EJ7BsepO2Oevky7l8wGTjR0Xjb
rFLz7Xxvl3d+Hlbjxkg68zr85JRaM0oQjiuQtIwXH7TczdaQ2ATjtNt0zTldr6Cl
yKtbsTW1nU0aVB4wjU+EaoQDj2s4+npaWFRD6tRNLHU26E8iDuPKlkPQIAcoEzm8
nqVE8ZIAusuxRCPtTQXNDJ19N2QM/b+P9DMoGFTgNaHUcqebBWvd6U3+I9NKlADb
iOZ5WrVAt0yM9uitQaRscHaxmNwFpVonChcLqxI5wajbev5NFRUvHn+dswzUN7QT
u9lJruZnDbEY9e/iIEj59lWglLQR5rXYjB6tNFxrpIR88PwCzY2LEMpgJJ1bGBx3
8JJH8dsaSqZxBYJePDY+wVVD/Dw7NTAvf6L0u2qVQgqUuIR9dLmg8U2vtjUslCFB
EB4Hn+0cIP5cK5980EuUhUq6gO/d1VIgBVABOUBdGuk7FWkLwlxOsRKET5al6rfR
n7U9cAn1ejbnLllxnUFvJE3DvXndzxQM+TYImFsKc3YSUUiKxlgKRegDmrPDGFem
iu+65s8nR7JbJDUxARbnHA1GuRCV2rVtd9nWSDJp4R/tdV/KwdifykPjJnXYSNjs
0tkEHtm300cc0ba6Y45IfaIrS3TAqWomJWfMr28CAwEAAaOCAgowggIGMA8GA1Ud
EwEB/wQFMAMBAf8wDgYDVR0PAQH/BAQDAgEGMB0GA1UdDgQWBBRguaeesfKYl/WF
lYtmavNYaHCzpjAfBgNVHSMEGDAWgBToCy7OYwjI8GKc4eJHS/2h20YCGjBUBggr
BgEFBQcBAQRIMEYwRAYIKwYBBQUHMAKGOGh0dHA6Ly9kZW1vLmVwYXJha3N0cy5s
di9jZXJ0L2RlbW9fZVBhcmFrc3RzX1Jvb3RfQ0EuY3J0MIIBAQYDVR0gBIH5MIH2
MDwGBwQAi+xAAQIwMTAvBggrBgEFBQcCARYjaHR0cHM6Ly93d3cuZXBhcmFrc3Rz
Lmx2L3JlcG9zaXRvcnkwPAYHBACL7EABADAxMC8GCCsGAQUFBwIBFiNodHRwczov
L3d3dy5lcGFyYWtzdHMubHYvcmVwb3NpdG9yeTA7BgYEAI96AQEwMTAvBggrBgEF
BQcCARYjaHR0cHM6Ly93d3cuZXBhcmFrc3RzLmx2L3JlcG9zaXRvcnkwOwYGBACP
egECMDEwLwYIKwYBBQUHAgEWI2h0dHBzOi8vd3d3LmVwYXJha3N0cy5sdi9yZXBv
c2l0b3J5MEgGA1UdHwRBMD8wPaA7oDmGN2h0dHA6Ly9kZW1vLmVwYXJha3N0cy5s
di9jcmwvZGVtb19lUGFyYWtzdHNfUm9vdF9DQS5jcmwwDQYJKoZIhvcNAQEMBQAD
ggIBAGgMUULotN6hyhxjerbnEhc3K4BI5Tfu0oaKMYDYG6/vdSJEsPoIR1aGYeqF
t1Me3v2PuWlpAhYpTf0SjDdgj88BIhSZ9f62I0X0Qgr+SzYivhi8S3Argk1XnIOj
cENs0TVpD1HyNdX/0NhQjrTeEBdb+0lz0Fg/F/D3JCGINvS+PCRZk9qly4TxX0fh
71Xh1BMfytRJx64Rd5s6bJreYkYSD8ODpsHaiz3BZv0UJB7YsyjCK0yYfagakXto
LJPpjvhKJVgwV1ym0OaNKGxcW9axwlyLiV1N3EEQbUXqqfrHpuVMcpEKJmxiSONr
HuqKt9cqrvo4WxEVk8C1EwwkPnz6Qwqnc/+rj496Aw8szu9ILCOUw+sdUdeGkEjk
+XYncPlw1iix+uwY2LyK02WSvD2zo89vqSqmyXJp65n10/1HIjVMd8a4zNjuZLeu
Z4shaG6rGvr3zxF5CEkPyJedgmmRe/rHOKgdtdBTpcNydwMHAhlGuMIZTCh1tYpn
Ct6WfpansTM9CAnqPDtLWs6DnnUUQuQOWaCDY6158tUEJLrr/2bn8ePqGSkQWM4e
rQiSewpEt0S10aWDV5DDGc9Lf4Qu218xwSQmJO4o3oWgbjznTDYtN1MGp3k+TwaE
qwzqJI9JXYhQ6ishkTKvjrRkYUOsZuiZ9pZFHPVlVNMYoGEY
-----END CERTIFICATE-----
