Certificate:
    Data:
        Version: 3 (0x2)
        Serial Number:
            7d:af:7e:16:fb:06:20:20:98:99:c9:f6:e1:dd:04:6b
        Signature Algorithm: ecdsa-with-SHA256
        Issuer: CN = TEST of SK TSA CA 2023E, organizationIdentifier = NTREE-10747013, O = SK ID Solutions AS, C = EE
        Validity
            Not Before: Dec 31 22:00:00 2024 GMT
            Not After : Mar 30 21:59:59 2031 GMT
        Subject: CN = DEMO SK TIMESTAMPING UNIT 2025E, organizationIdentifier = NTREE-10747013, O = SK ID Solutions AS, C = EE
        Subject Public Key Info:
            Public Key Algorithm: id-ecPublicKey
                Public-Key: (256 bit)
                pub:
                    04:00:43:79:5f:c0:8a:7d:c3:44:b4:7c:62:80:74:
                    fb:8d:8b:c3:15:0a:e2:09:da:da:d4:62:2b:1d:f4:
                    f0:ae:2e:6e:ea:84:c8:ce:55:e1:54:2c:d5:90:ec:
                    50:14:4d:dd:31:4c:0a:68:fe:90:80:b8:dc:6d:8c:
                    f8:c2:82:49:e3
                ASN1 OID: prime256v1
                NIST CURVE: P-256
        X509v3 extensions:
            X509v3 Authority Key Identifier: 
                keyid:69:05:A2:B4:A3:87:4B:8E:5F:18:45:2D:D5:B1:97:34:CF:67:3B:B7

            Authority Information Access: 
                CA Issuers - URI:http://c.sk.ee/TEST_of_SK_TSA_CA_2023E.der.crt
                OCSP - URI:http://demo.sk.ee/ocsp

            X509v3 Certificate Policies: 
                Policy: 0.4.0.2042.1.2
                  CPS: https://www.skidsolutions.eu/en/repository/tsa/
                  User Notice:
                    Explicit Text: TSU certificate has been issued according to NCP+ policy

            X509v3 Extended Key Usage: critical
                Time Stamping
            X509v3 CRL Distribution Points: 

                Full Name:
                  URI:http://c.sk.ee/test_sk_tsa_ca_2023e.crl

            X509v3 Subject Key Identifier: 
                78:7A:2E:0A:FA:D4:DE:BE:B8:62:56:FA:3D:B0:3F:FE:FE:B3:29:E3
            X509v3 Key Usage: critical
                Digital Signature, Non Repudiation
    Signature Algorithm: ecdsa-with-SHA256
         30:65:02:31:00:d3:af:41:ed:8c:a7:b3:ae:11:66:18:2f:f6:
         47:9e:b1:b7:14:d7:fd:63:de:0e:8a:01:93:9c:66:e3:c9:ba:
         79:2b:e4:19:13:ed:cf:76:97:15:1e:92:9c:ff:c5:44:fe:02:
         30:64:22:59:0c:f0:8f:b1:f9:f3:30:f4:ad:7e:81:16:21:24:
         57:48:92:69:e9:68:cd:72:3e:30:43:bf:e4:13:dd:0a:a5:5c:
         39:bb:59:fd:20:70:e0:5d:9a:4b:78:dd:b3
-----BEGIN CERTIFICATE-----
MIIDqTCCAy+gAwIBAgIQfa9+FvsGICCYmcn24d0EazAKBggqhkjOPQQDAjBlMSAw
HgYDVQQDDBdURVNUIG9mIFNLIFRTQSBDQSAyMDIzRTEXMBUGA1UEYQwOTlRSRUUt
MTA3NDcwMTMxGzAZBgNVBAoMElNLIElEIFNvbHV0aW9ucyBBUzELMAkGA1UEBhMC
RUUwHhcNMjQxMjMxMjIwMDAwWhcNMzEwMzMwMjE1OTU5WjBtMSgwJgYDVQQDDB9E
RU1PIFNLIFRJTUVTVEFNUElORyBVTklUIDIwMjVFMRcwFQYDVQRhDA5OVFJFRS0x
MDc0NzAxMzEbMBkGA1UECgwSU0sgSUQgU29sdXRpb25zIEFTMQswCQYDVQQGEwJF
RTBZMBMGByqGSM49AgEGCCqGSM49AwEHA0IABABDeV/Ain3DRLR8YoB0+42LwxUK
4gna2tRiKx308K4ubuqEyM5V4VQs1ZDsUBRN3TFMCmj+kIC43G2M+MKCSeOjggG3
MIIBszAfBgNVHSMEGDAWgBRpBaK0o4dLjl8YRS3VsZc0z2c7tzBuBggrBgEFBQcB
AQRiMGAwOgYIKwYBBQUHMAKGLmh0dHA6Ly9jLnNrLmVlL1RFU1Rfb2ZfU0tfVFNB
X0NBXzIwMjNFLmRlci5jcnQwIgYIKwYBBQUHMAGGFmh0dHA6Ly9kZW1vLnNrLmVl
L29jc3AwgZ4GA1UdIASBljCBkzCBkAYGBACPegECMIGFMDsGCCsGAQUFBwIBFi9o
dHRwczovL3d3dy5za2lkc29sdXRpb25zLmV1L2VuL3JlcG9zaXRvcnkvdHNhLzBG
BggrBgEFBQcCAjA6DDhUU1UgY2VydGlmaWNhdGUgaGFzIGJlZW4gaXNzdWVkIGFj
Y29yZGluZyB0byBOQ1ArIHBvbGljeTAWBgNVHSUBAf8EDDAKBggrBgEFBQcDCDA4
BgNVHR8EMTAvMC2gK6AphidodHRwOi8vYy5zay5lZS90ZXN0X3NrX3RzYV9jYV8y
MDIzZS5jcmwwHQYDVR0OBBYEFHh6Lgr61N6+uGJW+j2wP/7+synjMA4GA1UdDwEB
/wQEAwIGwDAKBggqhkjOPQQDAgNoADBlAjEA069B7Yyns64RZhgv9keesbcU1/1j
3g6KAZOcZuPJunkr5BkT7c92lxUekpz/xUT+AjBkIlkM8I+x+fMw9K1+gRYhJFdI
kmnpaM1yPjBDv+QT3QqlXDm7Wf0gcOBdmkt43bM=
-----END CERTIFICATE-----
